target datalayout = "e-m:e-p270:32:32-p271:32:32-p272:64:64-i64:64-i128:128-f80:128-n8:16:32:64-S128"
target triple = "x86_64-pc-linux-gnu"

%struct.DdManager = type { %struct.DdNode, ptr, ptr, ptr, ptr, ptr, ptr, ptr, i32, i32, double, double, double, i32, i32, i32, i32, i32, i32, ptr, ptr, %struct.DdSubtable, i32, i32, i32, i32, i32, i32, i32, double, i32, i32, i32, ptr, i64, double, i32, ptr, ptr, ptr, ptr, ptr, ptr, ptr, i32, ptr, ptr, ptr, ptr, ptr, ptr, i32, i32, i32, double, i32, i32, i32, i32, double, double, i32, i32, i32, i32, i32, i32, i32, i32, i32, ptr, ptr, i32, i32, i32, i32, i32, i32, ptr, ptr, ptr, ptr, ptr, ptr, ptr, ptr, i32, i64, i64, i64, i32, i64, i64, double, double, double, double, double, double, i32, ptr, ptr, i64 }
%struct.DdNode = type { i32, i32, ptr, %union.anon, i64 }
%union.anon = type { %struct.DdChildren }
%struct.DdChildren = type { ptr, ptr }
%struct.DdSubtable = type { ptr, i32, i32, i32, i32, i32, i32, i32, i32, i32, i32, i32 }
%struct.Extra_SymmInfo_t_ = type { i32, i32, i32, i32, ptr, ptr }

; Function Attrs: nounwind uwtable
define ptr @Extra_zddSelectOneSubset(ptr noundef %0, ptr noundef %1) #0 {
  %3 = alloca ptr, align 8
  %4 = alloca ptr, align 8
  %5 = alloca ptr, align 8
  store ptr %0, ptr %3, align 8, !tbaa !3
  store ptr %1, ptr %4, align 8, !tbaa !8
  call void @llvm.lifetime.start.p0(i64 8, ptr %5) #6
  br label %6

6:                                                ; preds = %12, %2
  %7 = load ptr, ptr %3, align 8, !tbaa !3
  %8 = getelementptr inbounds nuw %struct.DdManager, ptr %7, i32 0, i32 55
  store i32 0, ptr %8, align 8, !tbaa !12
  %9 = load ptr, ptr %3, align 8, !tbaa !3
  %10 = load ptr, ptr %4, align 8, !tbaa !8
  %11 = call ptr @extraZddSelectOneSubset(ptr noundef %9, ptr noundef %10)
  store ptr %11, ptr %5, align 8, !tbaa !8
  br label %12

12:                                               ; preds = %6
  %13 = load ptr, ptr %3, align 8, !tbaa !3
  %14 = getelementptr inbounds nuw %struct.DdManager, ptr %13, i32 0, i32 55
  %15 = load i32, ptr %14, align 8, !tbaa !12
  %16 = icmp eq i32 %15, 1
  br i1 %16, label %6, label %17, !llvm.loop !63

17:                                               ; preds = %12
  %18 = load ptr, ptr %5, align 8, !tbaa !8
  call void @llvm.lifetime.end.p0(i64 8, ptr %5) #6
  ret ptr %18
}

; Function Attrs: nounwind uwtable
define ptr @Extra_SymmPairsAllocate(i32 noundef %0) #0 {
  %2 = alloca i32, align 4
  %3 = alloca i32, align 4
  %4 = alloca ptr, align 8
  store i32 %0, ptr %2, align 4, !tbaa !31
  call void @llvm.lifetime.start.p0(i64 4, ptr %3) #6
  call void @llvm.lifetime.start.p0(i64 8, ptr %4) #6
  %5 = call noalias ptr @malloc(i64 noundef 32) #7
  store ptr %5, ptr %4, align 8, !tbaa !10
  %6 = load ptr, ptr %4, align 8, !tbaa !10
  call void @llvm.memset.p0.i64(ptr align 8 %6, i8 0, i64 32, i1 false)
  %7 = load i32, ptr %2, align 4, !tbaa !31
  %8 = load ptr, ptr %4, align 8, !tbaa !10
  %9 = getelementptr inbounds nuw %struct.Extra_SymmInfo_t_, ptr %8, i32 0, i32 0
  store i32 %7, ptr %9, align 8, !tbaa !58
  %10 = load i32, ptr %2, align 4, !tbaa !31
  %11 = sext i32 %10 to i64
  %12 = mul i64 4, %11
  %13 = call noalias ptr @malloc(i64 noundef %12) #7
  %14 = load ptr, ptr %4, align 8, !tbaa !10
  %15 = getelementptr inbounds nuw %struct.Extra_SymmInfo_t_, ptr %14, i32 0, i32 4
  store ptr %13, ptr %15, align 8, !tbaa !40
  %16 = load i32, ptr %2, align 4, !tbaa !31
  %17 = sext i32 %16 to i64
  %18 = mul i64 8, %17
  %19 = call noalias ptr @malloc(i64 noundef %18) #7
  %20 = load ptr, ptr %4, align 8, !tbaa !10
  %21 = getelementptr inbounds nuw %struct.Extra_SymmInfo_t_, ptr %20, i32 0, i32 5
  store ptr %19, ptr %21, align 8, !tbaa !44
  %22 = load i32, ptr %2, align 4, !tbaa !31
  %23 = load i32, ptr %2, align 4, !tbaa !31
  %24 = mul nsw i32 %22, %23
  %25 = sext i32 %24 to i64
  %26 = mul i64 1, %25
  %27 = call noalias ptr @malloc(i64 noundef %26) #7
  %28 = load ptr, ptr %4, align 8, !tbaa !10
  %29 = getelementptr inbounds nuw %struct.Extra_SymmInfo_t_, ptr %28, i32 0, i32 5
  %30 = load ptr, ptr %29, align 8, !tbaa !44
  %31 = getelementptr inbounds ptr, ptr %30, i64 0
  store ptr %27, ptr %31, align 8, !tbaa !45
  %32 = load ptr, ptr %4, align 8, !tbaa !10
  %33 = getelementptr inbounds nuw %struct.Extra_SymmInfo_t_, ptr %32, i32 0, i32 5
  %34 = load ptr, ptr %33, align 8, !tbaa !44
  %35 = getelementptr inbounds ptr, ptr %34, i64 0
  %36 = load ptr, ptr %35, align 8, !tbaa !45
  %37 = load i32, ptr %2, align 4, !tbaa !31
  %38 = load i32, ptr %2, align 4, !tbaa !31
  %39 = mul nsw i32 %37, %38
  %40 = sext i32 %39 to i64
  %41 = mul i64 %40, 1
  call void @llvm.memset.p0.i64(ptr align 1 %36, i8 0, i64 %41, i1 false)
  store i32 1, ptr %3, align 4, !tbaa !31
  br label %42

42:                                               ; preds = %64, %1
  %43 = load i32, ptr %3, align 4, !tbaa !31
  %44 = load i32, ptr %2, align 4, !tbaa !31
  %45 = icmp slt i32 %43, %44
  br i1 %45, label %46, label %67

46:                                               ; preds = %42
  %47 = load ptr, ptr %4, align 8, !tbaa !10
  %48 = getelementptr inbounds nuw %struct.Extra_SymmInfo_t_, ptr %47, i32 0, i32 5
  %49 = load ptr, ptr %48, align 8, !tbaa !44
  %50 = load i32, ptr %3, align 4, !tbaa !31
  %51 = sub nsw i32 %50, 1
  %52 = sext i32 %51 to i64
  %53 = getelementptr inbounds ptr, ptr %49, i64 %52
  %54 = load ptr, ptr %53, align 8, !tbaa !45
  %55 = load i32, ptr %2, align 4, !tbaa !31
  %56 = sext i32 %55 to i64
  %57 = getelementptr inbounds i8, ptr %54, i64 %56
  %58 = load ptr, ptr %4, align 8, !tbaa !10
  %59 = getelementptr inbounds nuw %struct.Extra_SymmInfo_t_, ptr %58, i32 0, i32 5
  %60 = load ptr, ptr %59, align 8, !tbaa !44
  %61 = load i32, ptr %3, align 4, !tbaa !31
  %62 = sext i32 %61 to i64
  %63 = getelementptr inbounds ptr, ptr %60, i64 %62
  store ptr %57, ptr %63, align 8, !tbaa !45
  br label %64

64:                                               ; preds = %46
  %65 = load i32, ptr %3, align 4, !tbaa !31
  %66 = add nsw i32 %65, 1
  store i32 %66, ptr %3, align 4, !tbaa !31
  br label %42, !llvm.loop !59

67:                                               ; preds = %42
  %68 = load ptr, ptr %4, align 8, !tbaa !10
  call void @llvm.lifetime.end.p0(i64 8, ptr %4) #6
  call void @llvm.lifetime.end.p0(i64 4, ptr %3) #6
  ret ptr %68
}

; Function Attrs: nounwind uwtable
define ptr @Extra_SymmPairsCreateFromZdd(ptr noundef %0, ptr noundef %1, ptr noundef %2) #0 {
  %4 = alloca ptr, align 8
  %5 = alloca ptr, align 8
  %6 = alloca ptr, align 8
  %7 = alloca i32, align 4
  %8 = alloca i32, align 4
  %9 = alloca ptr, align 8
  %10 = alloca ptr, align 8
  %11 = alloca ptr, align 8
  %12 = alloca ptr, align 8
  %13 = alloca ptr, align 8
  %14 = alloca ptr, align 8
  %15 = alloca i32, align 4
  %16 = alloca i32, align 4
  store ptr %0, ptr %4, align 8, !tbaa !3
  store ptr %1, ptr %5, align 8, !tbaa !8
  store ptr %2, ptr %6, align 8, !tbaa !8
  call void @llvm.lifetime.start.p0(i64 4, ptr %7) #6
  call void @llvm.lifetime.start.p0(i64 4, ptr %8) #6
  call void @llvm.lifetime.start.p0(i64 8, ptr %9) #6
  call void @llvm.lifetime.start.p0(i64 8, ptr %10) #6
  call void @llvm.lifetime.start.p0(i64 8, ptr %11) #6
  call void @llvm.lifetime.start.p0(i64 8, ptr %12) #6
  call void @llvm.lifetime.start.p0(i64 8, ptr %13) #6
  call void @llvm.lifetime.start.p0(i64 8, ptr %14) #6
  call void @llvm.lifetime.start.p0(i64 4, ptr %15) #6
  call void @llvm.lifetime.start.p0(i64 4, ptr %16) #6
  %17 = load ptr, ptr %4, align 8, !tbaa !3
  %18 = load ptr, ptr %6, align 8, !tbaa !8
  %19 = call i32 @Extra_bddSuppSize(ptr noundef %17, ptr noundef %18)
  store i32 %19, ptr %8, align 4, !tbaa !31
  %20 = load i32, ptr %8, align 4, !tbaa !31
  %21 = call ptr @Extra_SymmPairsAllocate(i32 noundef %20)
  store ptr %21, ptr %9, align 8, !tbaa !10
  %22 = load ptr, ptr %4, align 8, !tbaa !3
  %23 = getelementptr inbounds nuw %struct.DdManager, ptr %22, i32 0, i32 15
  %24 = load i32, ptr %23, align 8, !tbaa !32
  %25 = sext i32 %24 to i64
  %26 = mul i64 4, %25
  %27 = call noalias ptr @malloc(i64 noundef %26) #7
  store ptr %27, ptr %10, align 8, !tbaa !33
  %28 = load ptr, ptr %10, align 8, !tbaa !33
  %29 = load ptr, ptr %4, align 8, !tbaa !3
  %30 = getelementptr inbounds nuw %struct.DdManager, ptr %29, i32 0, i32 15
  %31 = load i32, ptr %30, align 8, !tbaa !32
  %32 = sext i32 %31 to i64
  %33 = mul i64 %32, 4
  call void @llvm.memset.p0.i64(ptr align 4 %28, i8 0, i64 %33, i1 false)
  %34 = load ptr, ptr %4, align 8, !tbaa !3
  %35 = getelementptr inbounds nuw %struct.DdManager, ptr %34, i32 0, i32 15
  %36 = load i32, ptr %35, align 8, !tbaa !32
  %37 = load ptr, ptr %9, align 8, !tbaa !10
  %38 = getelementptr inbounds nuw %struct.Extra_SymmInfo_t_, ptr %37, i32 0, i32 1
  store i32 %36, ptr %38, align 4, !tbaa !34
  %39 = load ptr, ptr %9, align 8, !tbaa !10
  %40 = getelementptr inbounds nuw %struct.Extra_SymmInfo_t_, ptr %39, i32 0, i32 3
  store i32 0, ptr %40, align 4, !tbaa !37
  store i32 0, ptr %7, align 4, !tbaa !31
  %41 = load ptr, ptr %6, align 8, !tbaa !8
  store ptr %41, ptr %11, align 8, !tbaa !8
  br label %42

42:                                               ; preds = %65, %3
  %43 = load ptr, ptr %11, align 8, !tbaa !8
  %44 = load ptr, ptr %4, align 8, !tbaa !3
  %45 = getelementptr inbounds nuw %struct.DdManager, ptr %44, i32 0, i32 1
  %46 = load ptr, ptr %45, align 8, !tbaa !38
  %47 = icmp ne ptr %43, %46
  br i1 %47, label %48, label %72

48:                                               ; preds = %42
  %49 = load ptr, ptr %11, align 8, !tbaa !8
  %50 = getelementptr inbounds nuw %struct.DdNode, ptr %49, i32 0, i32 0
  %51 = load i32, ptr %50, align 8, !tbaa !39
  %52 = load ptr, ptr %9, align 8, !tbaa !10
  %53 = getelementptr inbounds nuw %struct.Extra_SymmInfo_t_, ptr %52, i32 0, i32 4
  %54 = load ptr, ptr %53, align 8, !tbaa !40
  %55 = load i32, ptr %7, align 4, !tbaa !31
  %56 = sext i32 %55 to i64
  %57 = getelementptr inbounds i32, ptr %54, i64 %56
  store i32 %51, ptr %57, align 4, !tbaa !31
  %58 = load i32, ptr %7, align 4, !tbaa !31
  %59 = load ptr, ptr %10, align 8, !tbaa !33
  %60 = load ptr, ptr %11, align 8, !tbaa !8
  %61 = getelementptr inbounds nuw %struct.DdNode, ptr %60, i32 0, i32 0
  %62 = load i32, ptr %61, align 8, !tbaa !39
  %63 = zext i32 %62 to i64
  %64 = getelementptr inbounds nuw i32, ptr %59, i64 %63
  store i32 %58, ptr %64, align 4, !tbaa !31
  br label %65

65:                                               ; preds = %48
  %66 = load ptr, ptr %11, align 8, !tbaa !8
  %67 = getelementptr inbounds nuw %struct.DdNode, ptr %66, i32 0, i32 3
  %68 = getelementptr inbounds nuw %struct.DdChildren, ptr %67, i32 0, i32 0
  %69 = load ptr, ptr %68, align 8, !tbaa !41
  store ptr %69, ptr %11, align 8, !tbaa !8
  %70 = load i32, ptr %7, align 4, !tbaa !31
  %71 = add nsw i32 %70, 1
  store i32 %71, ptr %7, align 4, !tbaa !31
  br label %42, !llvm.loop !42

72:                                               ; preds = %42
  %73 = load ptr, ptr %5, align 8, !tbaa !8
  store ptr %73, ptr %12, align 8, !tbaa !8
  %74 = load ptr, ptr %12, align 8, !tbaa !8
  call void @Cudd_Ref(ptr noundef %74)
  br label %75

75:                                               ; preds = %146, %72
  %76 = load ptr, ptr %12, align 8, !tbaa !8
  %77 = load ptr, ptr %4, align 8, !tbaa !3
  %78 = getelementptr inbounds nuw %struct.DdManager, ptr %77, i32 0, i32 2
  %79 = load ptr, ptr %78, align 8, !tbaa !43
  %80 = icmp ne ptr %76, %79
  br i1 %80, label %81, label %160

81:                                               ; preds = %75
  %82 = load ptr, ptr %4, align 8, !tbaa !3
  %83 = load ptr, ptr %12, align 8, !tbaa !8
  %84 = call ptr @Extra_zddSelectOneSubset(ptr noundef %82, ptr noundef %83)
  store ptr %84, ptr %13, align 8, !tbaa !8
  %85 = load ptr, ptr %13, align 8, !tbaa !8
  call void @Cudd_Ref(ptr noundef %85)
  %86 = load ptr, ptr %13, align 8, !tbaa !8
  %87 = getelementptr inbounds nuw %struct.DdNode, ptr %86, i32 0, i32 0
  %88 = load i32, ptr %87, align 8, !tbaa !39
  %89 = udiv i32 %88, 2
  store i32 %89, ptr %15, align 4, !tbaa !31
  %90 = load ptr, ptr %13, align 8, !tbaa !8
  %91 = getelementptr inbounds nuw %struct.DdNode, ptr %90, i32 0, i32 3
  %92 = getelementptr inbounds nuw %struct.DdChildren, ptr %91, i32 0, i32 0
  %93 = load ptr, ptr %92, align 8, !tbaa !41
  %94 = getelementptr inbounds nuw %struct.DdNode, ptr %93, i32 0, i32 0
  %95 = load i32, ptr %94, align 8, !tbaa !39
  %96 = udiv i32 %95, 2
  store i32 %96, ptr %16, align 4, !tbaa !31
  %97 = load ptr, ptr %10, align 8, !tbaa !33
  %98 = load i32, ptr %15, align 4, !tbaa !31
  %99 = sext i32 %98 to i64
  %100 = getelementptr inbounds i32, ptr %97, i64 %99
  %101 = load i32, ptr %100, align 4, !tbaa !31
  %102 = load ptr, ptr %10, align 8, !tbaa !33
  %103 = load i32, ptr %16, align 4, !tbaa !31
  %104 = sext i32 %103 to i64
  %105 = getelementptr inbounds i32, ptr %102, i64 %104
  %106 = load i32, ptr %105, align 4, !tbaa !31
  %107 = icmp slt i32 %101, %106
  br i1 %107, label %108, label %127

108:                                              ; preds = %81
  %109 = load ptr, ptr %9, align 8, !tbaa !10
  %110 = getelementptr inbounds nuw %struct.Extra_SymmInfo_t_, ptr %109, i32 0, i32 5
  %111 = load ptr, ptr %110, align 8, !tbaa !44
  %112 = load ptr, ptr %10, align 8, !tbaa !33
  %113 = load i32, ptr %15, align 4, !tbaa !31
  %114 = sext i32 %113 to i64
  %115 = getelementptr inbounds i32, ptr %112, i64 %114
  %116 = load i32, ptr %115, align 4, !tbaa !31
  %117 = sext i32 %116 to i64
  %118 = getelementptr inbounds ptr, ptr %111, i64 %117
  %119 = load ptr, ptr %118, align 8, !tbaa !45
  %120 = load ptr, ptr %10, align 8, !tbaa !33
  %121 = load i32, ptr %16, align 4, !tbaa !31
  %122 = sext i32 %121 to i64
  %123 = getelementptr inbounds i32, ptr %120, i64 %122
  %124 = load i32, ptr %123, align 4, !tbaa !31
  %125 = sext i32 %124 to i64
  %126 = getelementptr inbounds i8, ptr %119, i64 %125
  store i8 1, ptr %126, align 1, !tbaa !41
  br label %146

127:                                              ; preds = %81
  %128 = load ptr, ptr %9, align 8, !tbaa !10
  %129 = getelementptr inbounds nuw %struct.Extra_SymmInfo_t_, ptr %128, i32 0, i32 5
  %130 = load ptr, ptr %129, align 8, !tbaa !44
  %131 = load ptr, ptr %10, align 8, !tbaa !33
  %132 = load i32, ptr %16, align 4, !tbaa !31
  %133 = sext i32 %132 to i64
  %134 = getelementptr inbounds i32, ptr %131, i64 %133
  %135 = load i32, ptr %134, align 4, !tbaa !31
  %136 = sext i32 %135 to i64
  %137 = getelementptr inbounds ptr, ptr %130, i64 %136
  %138 = load ptr, ptr %137, align 8, !tbaa !45
  %139 = load ptr, ptr %10, align 8, !tbaa !33
  %140 = load i32, ptr %15, align 4, !tbaa !31
  %141 = sext i32 %140 to i64
  %142 = getelementptr inbounds i32, ptr %139, i64 %141
  %143 = load i32, ptr %142, align 4, !tbaa !31
  %144 = sext i32 %143 to i64
  %145 = getelementptr inbounds i8, ptr %138, i64 %144
  store i8 1, ptr %145, align 1, !tbaa !41
  br label %146

146:                                              ; preds = %127, %108
  %147 = load ptr, ptr %9, align 8, !tbaa !10
  %148 = getelementptr inbounds nuw %struct.Extra_SymmInfo_t_, ptr %147, i32 0, i32 2
  %149 = load i32, ptr %148, align 8, !tbaa !46
  %150 = add nsw i32 %149, 1
  store i32 %150, ptr %148, align 8, !tbaa !46
  %151 = load ptr, ptr %4, align 8, !tbaa !3
  %152 = load ptr, ptr %12, align 8, !tbaa !8
  store ptr %152, ptr %14, align 8, !tbaa !8
  %153 = load ptr, ptr %13, align 8, !tbaa !8
  %154 = call ptr @Cudd_zddDiff(ptr noundef %151, ptr noundef %152, ptr noundef %153)
  store ptr %154, ptr %12, align 8, !tbaa !8
  %155 = load ptr, ptr %12, align 8, !tbaa !8
  call void @Cudd_Ref(ptr noundef %155)
  %156 = load ptr, ptr %4, align 8, !tbaa !3
  %157 = load ptr, ptr %14, align 8, !tbaa !8
  call void @Cudd_RecursiveDerefZdd(ptr noundef %156, ptr noundef %157)
  %158 = load ptr, ptr %4, align 8, !tbaa !3
  %159 = load ptr, ptr %13, align 8, !tbaa !8
  call void @Cudd_RecursiveDerefZdd(ptr noundef %158, ptr noundef %159)
  br label %75, !llvm.loop !47

160:                                              ; preds = %75
  %161 = load ptr, ptr %4, align 8, !tbaa !3
  %162 = load ptr, ptr %12, align 8, !tbaa !8
  call void @Cudd_RecursiveDerefZdd(ptr noundef %161, ptr noundef %162)
  %163 = load ptr, ptr %10, align 8, !tbaa !33
  %164 = icmp ne ptr %163, null
  br i1 %164, label %165, label %167

165:                                              ; preds = %160
  %166 = load ptr, ptr %10, align 8, !tbaa !33
  call void @free(ptr noundef %166) #6
  store ptr null, ptr %10, align 8, !tbaa !33
  br label %168

167:                                              ; preds = %160
  br label %168

168:                                              ; preds = %167, %165
  %169 = load ptr, ptr %9, align 8, !tbaa !10
  call void @llvm.lifetime.end.p0(i64 4, ptr %16) #6
  call void @llvm.lifetime.end.p0(i64 4, ptr %15) #6
  call void @llvm.lifetime.end.p0(i64 8, ptr %14) #6
  call void @llvm.lifetime.end.p0(i64 8, ptr %13) #6
  call void @llvm.lifetime.end.p0(i64 8, ptr %12) #6
  call void @llvm.lifetime.end.p0(i64 8, ptr %11) #6
  call void @llvm.lifetime.end.p0(i64 8, ptr %10) #6
  call void @llvm.lifetime.end.p0(i64 8, ptr %9) #6
  call void @llvm.lifetime.end.p0(i64 4, ptr %8) #6
  call void @llvm.lifetime.end.p0(i64 4, ptr %7) #6
  ret ptr %169
}