; Function Attrs: nounwind uwtable
define noalias noundef ptr @Extra_SymmPairsCreateFromZdd(ptr noundef %0, ptr noundef %1, ptr noundef %2) local_unnamed_addr #0 {
  %4 = tail call i32 @Extra_bddSuppSize(ptr noundef %0, ptr noundef %2) #10
  %calloc.i = tail call dereferenceable_or_null(32) ptr @calloc(i64 1, i64 32)
  store i32 %4, ptr %calloc.i, align 8, !tbaa !26
  %5 = sext i32 %4 to i64
  %6 = shl nsw i64 %5, 2
  %7 = tail call noalias ptr @malloc(i64 noundef %6) #11
  %8 = getelementptr inbounds nuw i8, ptr %calloc.i, i64 16
  store ptr %7, ptr %8, align 8, !tbaa !29
  %9 = shl nsw i64 %5, 3
  %10 = tail call noalias ptr @malloc(i64 noundef %9) #11
  %11 = getelementptr inbounds nuw i8, ptr %calloc.i, i64 24
  store ptr %10, ptr %11, align 8, !tbaa !30
  %12 = mul nsw i32 %4, %4
  %13 = zext nneg i32 %12 to i64
  %calloc23.i = tail call ptr @calloc(i64 1, i64 %13)
  store ptr %calloc23.i, ptr %10, align 8, !tbaa !31
  %14 = icmp sgt i32 %4, 1
  br i1 %14, label %.lr.ph.preheader.i, label %Extra_SymmPairsAllocate.exit

.lr.ph.preheader.i:                               ; preds = %3
  %wide.trip.count.i = zext nneg i32 %4 to i64
  %load_initial = load ptr, ptr %10, align 8
  br label %.lr.ph.i

.lr.ph.i:                                         ; preds = %.lr.ph.i, %.lr.ph.preheader.i
  %store_forwarded = phi ptr [ %load_initial, %.lr.ph.preheader.i ], [ %16, %.lr.ph.i ]
  %indvars.iv.i = phi i64 [ 1, %.lr.ph.preheader.i ], [ %indvars.iv.next.i, %.lr.ph.i ]
  %15 = getelementptr ptr, ptr %10, i64 %indvars.iv.i
  %16 = getelementptr inbounds nuw i8, ptr %store_forwarded, i64 %5
  store ptr %16, ptr %15, align 8, !tbaa !31
  %indvars.iv.next.i = add nuw nsw i64 %indvars.iv.i, 1
  %exitcond.not.i = icmp eq i64 %indvars.iv.next.i, %wide.trip.count.i
  br i1 %exitcond.not.i, label %Extra_SymmPairsAllocate.exit, label %.lr.ph.i, !llvm.loop !32

Extra_SymmPairsAllocate.exit:                     ; preds = %.lr.ph.i, %3
  %17 = getelementptr inbounds nuw i8, ptr %0, i64 136
  %18 = load i32, ptr %17, align 8, !tbaa !33
  %19 = sext i32 %18 to i64
  %20 = shl nsw i64 %19, 2
  %calloc = tail call ptr @calloc(i64 1, i64 %20)
  %21 = getelementptr inbounds nuw i8, ptr %calloc.i, i64 4
  store i32 %18, ptr %21, align 4, !tbaa !34
  %22 = getelementptr inbounds nuw i8, ptr %0, i64 40
  %23 = load ptr, ptr %22, align 8, !tbaa !35
  %.not64 = icmp eq ptr %2, %23
  br i1 %.not64, label %._crit_edge, label %.lr.ph

.lr.ph:                                           ; preds = %Extra_SymmPairsAllocate.exit, %.lr.ph
  %indvars.iv = phi i64 [ %indvars.iv.next, %.lr.ph ], [ 0, %Extra_SymmPairsAllocate.exit ]
  %.05665 = phi ptr [ %30, %.lr.ph ], [ %2, %Extra_SymmPairsAllocate.exit ]
  %24 = load i32, ptr %.05665, align 8, !tbaa !36
  %25 = getelementptr inbounds nuw i32, ptr %7, i64 %indvars.iv
  store i32 %24, ptr %25, align 4, !tbaa !37
  %26 = zext i32 %24 to i64
  %27 = getelementptr inbounds nuw i32, ptr %calloc, i64 %26
  %28 = trunc nuw nsw i64 %indvars.iv to i32
  store i32 %28, ptr %27, align 4, !tbaa !37
  %29 = getelementptr inbounds nuw i8, ptr %.05665, i64 16
  %30 = load ptr, ptr %29, align 8, !tbaa !38
  %indvars.iv.next = add nuw nsw i64 %indvars.iv, 1
  %.not = icmp eq ptr %30, %23
  br i1 %.not, label %._crit_edge, label %.lr.ph, !llvm.loop !39

._crit_edge:                                      ; preds = %.lr.ph, %Extra_SymmPairsAllocate.exit
  tail call void @Cudd_Ref(ptr noundef %1) #10
  %31 = getelementptr inbounds nuw i8, ptr %0, i64 48
  %32 = load ptr, ptr %31, align 8, !tbaa !40
  %.not6267 = icmp eq ptr %1, %32
  br i1 %.not6267, label %._crit_edge71, label %.lr.ph70

.lr.ph70:                                         ; preds = %._crit_edge
  %33 = getelementptr inbounds nuw i8, ptr %0, i64 448
  %34 = getelementptr inbounds nuw i8, ptr %calloc.i, i64 8
  br label %35

35:                                               ; preds = %.lr.ph70, %Extra_zddSelectOneSubset.exit
  %36 = phi i32 [ 0, %.lr.ph70 ], [ %58, %Extra_zddSelectOneSubset.exit ]
  %.05768 = phi ptr [ %1, %.lr.ph70 ], [ %59, %Extra_zddSelectOneSubset.exit ]
  br label %37

37:                                               ; preds = %37, %35
  store i32 0, ptr %33, align 8, !tbaa !3
  %38 = tail call ptr @extraZddSelectOneSubset(ptr noundef nonnull %0, ptr noundef %.05768)
  %39 = load i32, ptr %33, align 8, !tbaa !3
  %40 = icmp eq i32 %39, 1
  br i1 %40, label %37, label %Extra_zddSelectOneSubset.exit, !llvm.loop !41

Extra_zddSelectOneSubset.exit:                    ; preds = %37
  tail call void @Cudd_Ref(ptr noundef %38) #10
  %41 = load i32, ptr %38, align 8, !tbaa !36
  %42 = lshr i32 %41, 1
  %43 = getelementptr inbounds nuw i8, ptr %38, i64 16
  %44 = load ptr, ptr %43, align 8, !tbaa !38
  %45 = load i32, ptr %44, align 8, !tbaa !36
  %46 = lshr i32 %45, 1
  %47 = zext nneg i32 %42 to i64
  %48 = getelementptr inbounds nuw i32, ptr %calloc, i64 %47
  %49 = load i32, ptr %48, align 4, !tbaa !37
  %50 = zext nneg i32 %46 to i64
  %51 = getelementptr inbounds nuw i32, ptr %calloc, i64 %50
  %52 = load i32, ptr %51, align 4, !tbaa !37
  %. = tail call i32 @llvm.smin.i32(i32 %49, i32 %52)
  %.82 = tail call i32 @llvm.smax.i32(i32 %49, i32 %52)
  %53 = sext i32 %. to i64
  %54 = getelementptr inbounds ptr, ptr %10, i64 %53
  %55 = load ptr, ptr %54, align 8, !tbaa !31
  %56 = sext i32 %.82 to i64
  %57 = getelementptr inbounds i8, ptr %55, i64 %56
  store i8 1, ptr %57, align 1, !tbaa !38
  %58 = add nuw nsw i32 %36, 1
  store i32 %58, ptr %34, align 8, !tbaa !42
  %59 = tail call ptr @Cudd_zddDiff(ptr noundef nonnull %0, ptr noundef %.05768, ptr noundef nonnull %38) #10
  tail call void @Cudd_Ref(ptr noundef %59) #10
  tail call void @Cudd_RecursiveDerefZdd(ptr noundef nonnull %0, ptr noundef %.05768) #10
  tail call void @Cudd_RecursiveDerefZdd(ptr noundef nonnull %0, ptr noundef nonnull %38) #10
  %60 = load ptr, ptr %31, align 8, !tbaa !40
  %.not62 = icmp eq ptr %59, %60
  br i1 %.not62, label %._crit_edge71.thread, label %35, !llvm.loop !43

._crit_edge71.thread:                             ; preds = %Extra_zddSelectOneSubset.exit
  tail call void @Cudd_RecursiveDerefZdd(ptr noundef nonnull %0, ptr noundef %59) #10
  br label %61

._crit_edge71:                                    ; preds = %._crit_edge
  tail call void @Cudd_RecursiveDerefZdd(ptr noundef nonnull %0, ptr noundef %1) #10
  %.not63 = icmp eq ptr %calloc, null
  br i1 %.not63, label %62, label %61

61:                                               ; preds = %._crit_edge71.thread, %._crit_edge71
  tail call void @free(ptr noundef nonnull %calloc) #10
  br label %62

62:                                               ; preds = %._crit_edge71, %61
  ret ptr %calloc.i
}